00000100  E96005            jmp word 0x663
00000103  0000              add [bx+si],al
00000105  0000              add [bx+si],al
00000107  0000              add [bx+si],al
00000109  0000              add [bx+si],al
0000010B  0000              add [bx+si],al
0000010D  0000              add [bx+si],al
0000010F  0000              add [bx+si],al
00000111  0000              add [bx+si],al
00000113  0000              add [bx+si],al
00000115  0000              add [bx+si],al
00000117  0000              add [bx+si],al
00000119  0000              add [bx+si],al
0000011B  0000              add [bx+si],al
0000011D  0000              add [bx+si],al
0000011F  0000              add [bx+si],al
00000121  0000              add [bx+si],al
00000123  0000              add [bx+si],al
00000125  0000              add [bx+si],al
00000127  0000              add [bx+si],al
00000129  0000              add [bx+si],al
0000012B  0000              add [bx+si],al
0000012D  0000              add [bx+si],al
0000012F  0000              add [bx+si],al
00000131  0000              add [bx+si],al
00000133  0000              add [bx+si],al
00000135  0000              add [bx+si],al
00000137  0000              add [bx+si],al
00000139  0000              add [bx+si],al
0000013B  0000              add [bx+si],al
0000013D  0000              add [bx+si],al
0000013F  0000              add [bx+si],al
00000141  0000              add [bx+si],al
00000143  0000              add [bx+si],al
00000145  0000              add [bx+si],al
00000147  0000              add [bx+si],al
00000149  0000              add [bx+si],al
0000014B  0000              add [bx+si],al
0000014D  0000              add [bx+si],al
0000014F  0000              add [bx+si],al
00000151  0000              add [bx+si],al
00000153  0000              add [bx+si],al
00000155  005C00            add [si+0x0],bl
00000158  0000              add [bx+si],al
0000015A  0000              add [bx+si],al
0000015C  0000              add [bx+si],al
0000015E  0000              add [bx+si],al
00000160  0000              add [bx+si],al
00000162  0000              add [bx+si],al
00000164  0000              add [bx+si],al
00000166  0000              add [bx+si],al
00000168  0000              add [bx+si],al
0000016A  0000              add [bx+si],al
0000016C  0000              add [bx+si],al
0000016E  0000              add [bx+si],al
00000170  0000              add [bx+si],al
00000172  0000              add [bx+si],al
00000174  0000              add [bx+si],al
00000176  0000              add [bx+si],al
00000178  0000              add [bx+si],al
0000017A  0000              add [bx+si],al
0000017C  0000              add [bx+si],al
0000017E  0000              add [bx+si],al
00000180  0000              add [bx+si],al
00000182  0000              add [bx+si],al
00000184  0000              add [bx+si],al
00000186  0000              add [bx+si],al
00000188  0000              add [bx+si],al
0000018A  0000              add [bx+si],al
0000018C  0000              add [bx+si],al
0000018E  0000              add [bx+si],al
00000190  0000              add [bx+si],al
00000192  0000              add [bx+si],al
00000194  0000              add [bx+si],al
00000196  005C00            add [si+0x0],bl
00000199  0000              add [bx+si],al
0000019B  0000              add [bx+si],al
0000019D  0000              add [bx+si],al
0000019F  0000              add [bx+si],al
000001A1  0000              add [bx+si],al
000001A3  0000              add [bx+si],al
000001A5  0000              add [bx+si],al
000001A7  0000              add [bx+si],al
000001A9  0000              add [bx+si],al
000001AB  0000              add [bx+si],al
000001AD  0000              add [bx+si],al
000001AF  0000              add [bx+si],al
000001B1  0000              add [bx+si],al
000001B3  0000              add [bx+si],al
000001B5  0000              add [bx+si],al
000001B7  0000              add [bx+si],al
000001B9  0000              add [bx+si],al
000001BB  0000              add [bx+si],al
000001BD  0000              add [bx+si],al
000001BF  0000              add [bx+si],al
000001C1  0000              add [bx+si],al
000001C3  0000              add [bx+si],al
000001C5  0000              add [bx+si],al
000001C7  0000              add [bx+si],al
000001C9  0000              add [bx+si],al
000001CB  0000              add [bx+si],al
000001CD  0000              add [bx+si],al
000001CF  0000              add [bx+si],al
000001D1  0000              add [bx+si],al
000001D3  0000              add [bx+si],al
000001D5  0000              add [bx+si],al
000001D7  0000              add [bx+si],al
000001D9  0000              add [bx+si],al
000001DB  0000              add [bx+si],al
000001DD  0000              add [bx+si],al
000001DF  0000              add [bx+si],al
000001E1  0000              add [bx+si],al
000001E3  0000              add [bx+si],al
000001E5  0000              add [bx+si],al
000001E7  0000              add [bx+si],al
000001E9  0000              add [bx+si],al
000001EB  0000              add [bx+si],al
000001ED  0000              add [bx+si],al
000001EF  0000              add [bx+si],al
000001F1  0000              add [bx+si],al
000001F3  0000              add [bx+si],al
000001F5  0000              add [bx+si],al
000001F7  0000              add [bx+si],al
000001F9  0000              add [bx+si],al
000001FB  0000              add [bx+si],al
000001FD  0000              add [bx+si],al
000001FF  0000              add [bx+si],al
00000201  0000              add [bx+si],al
00000203  005806            add [bx+si+0x6],bl
00000206  1E                push ds
00000207  55                push bp
00000208  57                push di
00000209  56                push si
0000020A  52                push dx
0000020B  51                push cx
0000020C  53                push bx
0000020D  FFE0              jmp ax
0000020F  58                pop ax
00000210  5B                pop bx
00000211  59                pop cx
00000212  5A                pop dx
00000213  5E                pop si
00000214  5F                pop di
00000215  5D                pop bp
00000216  1F                pop ds
00000217  07                pop es
00000218  FFE0              jmp ax
0000021A  2EC606FF0100      mov byte [cs:0x1ff],0x0
00000220  2EF706DA010002    test word [cs:0x1da],0x200
00000227  741B              jz 0x244
00000229  2EFE0EFF01        dec byte [cs:0x1ff]
0000022E  2E8126DA01FFFD    and word [cs:0x1da],0xfdff
00000235  C3                ret
00000236  2EFE06FF01        inc byte [cs:0x1ff]
0000023B  7507              jnz 0x244
0000023D  2E810EDC010002    or word [cs:0x1dc],0x200
00000244  C3                ret
00000245  50                push ax
00000246  53                push bx
00000247  2E8B1ED801        mov bx,[cs:0x1d8]
0000024C  0BDB              or bx,bx
0000024E  750A              jnz 0x25a
00000250  B800B8            mov ax,0xb800
00000253  CD2F              int 0x2f
00000255  2E891ED801        mov [cs:0x1d8],bx
0000025A  0BDB              or bx,bx
0000025C  7416              jz 0x274
0000025E  83FB08            cmp bx,byte +0x8
00000261  7411              jz 0x274
00000263  57                push di
00000264  06                push es
00000265  B807C2            mov ax,0xc207
00000268  BB0100            mov bx,0x1
0000026B  CD2A              int 0x2a
0000026D  2EFE060102        inc byte [cs:0x201]
00000272  07                pop es
00000273  5F                pop di
00000274  5B                pop bx
00000275  58                pop ax
00000276  C3                ret
00000277  50                push ax
00000278  53                push bx
00000279  32C0              xor al,al
0000027B  2E86060102        xchg al,[cs:0x201]
00000280  0AC0              or al,al
00000282  74F0              jz 0x274
00000284  B808C2            mov ax,0xc208
00000287  BB0100            mov bx,0x1
0000028A  CD2A              int 0x2a
0000028C  EBE6              jmp short 0x274
0000028E  0000              add [bx+si],al
00000290  0000              add [bx+si],al
00000292  0000              add [bx+si],al
00000294  0000              add [bx+si],al
00000296  0000              add [bx+si],al
00000298  0000              add [bx+si],al
0000029A  0000              add [bx+si],al
0000029C  41                inc cx
0000029D  50                push ax
0000029E  50                push ax
0000029F  45                inc bp
000002A0  4E                dec si
000002A1  44                inc sp
000002A2  3D3B00            cmp ax,0x3b
000002A5  0000              add [bx+si],al
000002A7  0000              add [bx+si],al
000002A9  0000              add [bx+si],al
000002AB  0000              add [bx+si],al
000002AD  0000              add [bx+si],al
000002AF  0000              add [bx+si],al
000002B1  0000              add [bx+si],al
000002B3  0000              add [bx+si],al
000002B5  0000              add [bx+si],al
000002B7  0000              add [bx+si],al
000002B9  0000              add [bx+si],al
000002BB  0000              add [bx+si],al
000002BD  0000              add [bx+si],al
000002BF  0000              add [bx+si],al
000002C1  0000              add [bx+si],al
000002C3  0000              add [bx+si],al
000002C5  0000              add [bx+si],al
000002C7  0000              add [bx+si],al
000002C9  0000              add [bx+si],al
000002CB  0000              add [bx+si],al
000002CD  0000              add [bx+si],al
000002CF  0000              add [bx+si],al
000002D1  0000              add [bx+si],al
000002D3  0000              add [bx+si],al
000002D5  0000              add [bx+si],al
000002D7  0000              add [bx+si],al
000002D9  0000              add [bx+si],al
000002DB  0000              add [bx+si],al
000002DD  0000              add [bx+si],al
000002DF  0000              add [bx+si],al
000002E1  0000              add [bx+si],al
000002E3  0000              add [bx+si],al
000002E5  0000              add [bx+si],al
000002E7  0000              add [bx+si],al
000002E9  0000              add [bx+si],al
000002EB  0000              add [bx+si],al
000002ED  0000              add [bx+si],al
000002EF  0000              add [bx+si],al
000002F1  0000              add [bx+si],al
000002F3  0000              add [bx+si],al
000002F5  0000              add [bx+si],al
000002F7  0000              add [bx+si],al
000002F9  0000              add [bx+si],al
000002FB  0000              add [bx+si],al
000002FD  0000              add [bx+si],al
000002FF  0000              add [bx+si],al
00000301  0000              add [bx+si],al
00000303  0000              add [bx+si],al
00000305  0000              add [bx+si],al
00000307  0000              add [bx+si],al
00000309  0000              add [bx+si],al
0000030B  0000              add [bx+si],al
0000030D  0000              add [bx+si],al
0000030F  0000              add [bx+si],al
00000311  0000              add [bx+si],al
00000313  0000              add [bx+si],al
00000315  0000              add [bx+si],al
00000317  0000              add [bx+si],al
00000319  0000              add [bx+si],al
0000031B  0000              add [bx+si],al
0000031D  0000              add [bx+si],al
0000031F  0000              add [bx+si],al
00000321  0000              add [bx+si],al
00000323  0000              add [bx+si],al
00000325  0000              add [bx+si],al
00000327  0000              add [bx+si],al
00000329  0000              add [bx+si],al
0000032B  0000              add [bx+si],al
0000032D  0000              add [bx+si],al
0000032F  0000              add [bx+si],al
00000331  003D              add [di],bh
00000333  00B7740A          add [bx+0xa74],dh
00000337  3D01B7            cmp ax,0xb701
0000033A  7408              jz 0x344
0000033C  2EFF2EEE01        jmp word far [cs:0x1ee]
00000341  B0FF              mov al,0xff
00000343  CF                iretw
00000344  0E                push cs
00000345  07                pop es
00000346  BFA302            mov di,0x2a3
00000349  CF                iretw
0000034A  2EC606FE01FF      mov byte [cs:0x1fe],0xff
00000350  58                pop ax
00000351  58                pop ax
00000352  58                pop ax
00000353  58                pop ax
00000354  5B                pop bx
00000355  59                pop cx
00000356  5A                pop dx
00000357  5E                pop si
00000358  5F                pop di
00000359  5D                pop bp
0000035A  1F                pop ds
0000035B  07                pop es
0000035C  CF                iretw
0000035D  2E803EA3023B      cmp byte [cs:0x2a3],0x3b
00000363  740F              jz 0x374
00000365  80FC3D            cmp ah,0x3d
00000368  740F              jz 0x379
0000036A  80FC0F            cmp ah,0xf
0000036D  740A              jz 0x379
0000036F  80FC23            cmp ah,0x23
00000372  7405              jz 0x379
00000374  2EFF2EF601        jmp word far [cs:0x1f6]
00000379  2EA3E001          mov [cs:0x1e0],ax
0000037D  E8C5FE            call word 0x245
00000380  2E8F06FA01        pop word [cs:0x1fa]
00000385  2E8F06FC01        pop word [cs:0x1fc]
0000038A  2E8F06DA01        pop word [cs:0x1da]
0000038F  E888FE            call word 0x21a
00000392  2EFF36DA01        push word [cs:0x1da]
00000397  2EFF1EF601        call word far [cs:0x1f6]
0000039C  9C                pushfw
0000039D  2E8F06DC01        pop word [cs:0x1dc]
000003A2  2EA3E201          mov [cs:0x1e2],ax
000003A6  9F                lahf
000003A7  2E803EE1013D      cmp byte [cs:0x1e1],0x3d
000003AD  7521              jnz 0x3d0
000003AF  9E                sahf
000003B0  7304              jnc 0x3b6
000003B2  3C02              cmp al,0x2
000003B4  741E              jz 0x3d4
000003B6  E8BEFE            call word 0x277
000003B9  E87AFE            call word 0x236
000003BC  2EA1E201          mov ax,[cs:0x1e2]
000003C0  2EFF36DC01        push word [cs:0x1dc]
000003C5  2EFF36FC01        push word [cs:0x1fc]
000003CA  2EFF36FA01        push word [cs:0x1fa]
000003CF  CF                iretw
000003D0  3CFF              cmp al,0xff
000003D2  75E2              jnz 0x3b6
000003D4  E82DFE            call word 0x204
000003D7  2E8C1EEC01        mov [cs:0x1ec],ds
000003DC  2E8916EA01        mov [cs:0x1ea],dx
000003E1  8CC8              mov ax,cs
000003E3  8ED8              mov ds,ax
000003E5  8EC0              mov es,ax
000003E7  E8E301            call word 0x5cd
000003EA  8926E601          mov [0x1e6],sp
000003EE  8C16E801          mov [0x1e8],ss
000003F2  8ED0              mov ss,ax
000003F4  BCEE06            mov sp,0x6ee
000003F7  E84002            call word 0x63a
000003FA  E80F02            call word 0x60c
000003FD  C7060301A302      mov word [0x103],0x2a3
00000403  803EE1013D        cmp byte [0x1e1],0x3d
00000408  7565              jnz 0x46f
0000040A  E89D01            call word 0x5aa
0000040D  FC                cld
0000040E  E85701            call word 0x568
00000411  7429              jz 0x43c
00000413  B05C              mov al,0x5c
00000415  AA                stosb
00000416  56                push si
00000417  1E                push ds
00000418  8EDB              mov ds,bx
0000041A  B90D00            mov cx,0xd
0000041D  AC                lodsb
0000041E  0AC0              or al,al
00000420  AA                stosb
00000421  7402              jz 0x425
00000423  E2F8              loop 0x41d
00000425  1F                pop ds
00000426  5E                pop si
00000427  BA0501            mov dx,0x105
0000042A  E80601            call word 0x533
0000042D  E82D01            call word 0x55d
00000430  740A              jz 0x43c
00000432  7313              jnc 0x447
00000434  3C02              cmp al,0x2
00000436  74D5              jz 0x40d
00000438  3C03              cmp al,0x3
0000043A  74D1              jz 0x40d
0000043C  E8EB01            call word 0x62a
0000043F  E81202            call word 0x654
00000442  E8BB01            call word 0x600
00000445  EB12              jmp short 0x459
00000447  E8E001            call word 0x62a
0000044A  E80702            call word 0x654
0000044D  A1DE01            mov ax,[0x1de]
00000450  A3DC01            mov [0x1dc],ax
00000453  A1E401            mov ax,[0x1e4]
00000456  A3E201            mov [0x1e2],ax
00000459  8E16E801          mov ss,[0x1e8]
0000045D  8B26E601          mov sp,[0x1e6]
00000461  E8ABFD            call word 0x20f
00000464  E94FFF            jmp word 0x3b6
00000467  A00302            mov al,[0x203]
0000046A  E8DF00            call word 0x54c
0000046D  EBCD              jmp short 0x43c
0000046F  C606E401FF        mov byte [0x1e4],0xff
00000474  1E                push ds
00000475  C536EA01          lds si,[0x1ea]
00000479  BF0302            mov di,0x203
0000047C  FC                cld
0000047D  803CFF            cmp byte [si],0xff
00000480  7503              jnz 0x485
00000482  83C607            add si,byte +0x7
00000485  A4                movsb
00000486  C644FF00          mov byte [si-0x1],0x0
0000048A  1F                pop ds
0000048B  B419              mov ah,0x19
0000048D  9C                pushfw
0000048E  FF1EF601          call word far [0x1f6]
00000492  A20202            mov [0x202],al
00000495  BE5701            mov si,0x157
00000498  B200              mov dl,0x0
0000049A  B447              mov ah,0x47
0000049C  9C                pushfw
0000049D  FF1EF601          call word far [0x1f6]
000004A1  E8B900            call word 0x55d
000004A4  74C1              jz 0x467
000004A6  E8BF00            call word 0x568
000004A9  74BC              jz 0x467
000004AB  BB5C00            mov bx,0x5c
000004AE  7302              jnc 0x4b2
000004B0  891D              mov [di],bx
000004B2  A10501            mov ax,[0x105]
000004B5  80FC3A            cmp ah,0x3a
000004B8  7524              jnz 0x4de
000004BA  2C41              sub al,0x41
000004BC  8AD0              mov dl,al
000004BE  81FF0701          cmp di,0x107
000004C2  7502              jnz 0x4c6
000004C4  891D              mov [di],bx
000004C6  B40E              mov ah,0xe
000004C8  9C                pushfw
000004C9  FF1EF601          call word far [0x1f6]
000004CD  B447              mov ah,0x47
000004CF  B200              mov dl,0x0
000004D1  BE9801            mov si,0x198
000004D4  9C                pushfw
000004D5  FF1EF601          call word far [0x1f6]
000004D9  E88100            call word 0x55d
000004DC  7624              jna 0x502
000004DE  BA0501            mov dx,0x105
000004E1  B43B              mov ah,0x3b
000004E3  9C                pushfw
000004E4  FF1EF601          call word far [0x1f6]
000004E8  1E                push ds
000004E9  C516EA01          lds dx,[0x1ea]
000004ED  E84300            call word 0x533
000004F0  1F                pop ds
000004F1  803E06013A        cmp byte [0x106],0x3a
000004F6  750A              jnz 0x502
000004F8  BA9701            mov dx,0x197
000004FB  B43B              mov ah,0x3b
000004FD  9C                pushfw
000004FE  FF1EF601          call word far [0x1f6]
00000502  8A160202          mov dl,[0x202]
00000506  B40E              mov ah,0xe
00000508  9C                pushfw
00000509  FF1EF601          call word far [0x1f6]
0000050D  B43B              mov ah,0x3b
0000050F  BA5601            mov dx,0x156
00000512  9C                pushfw
00000513  FF1EF601          call word far [0x1f6]
00000517  E84300            call word 0x55d
0000051A  803EE401FF        cmp byte [0x1e4],0xff
0000051F  7485              jz 0x4a6
00000521  A00302            mov al,[0x203]
00000524  0AC0              or al,al
00000526  7505              jnz 0x52d
00000528  A00202            mov al,[0x202]
0000052B  FEC0              inc al
0000052D  E81C00            call word 0x54c
00000530  E914FF            jmp word 0x447
00000533  2EA1E001          mov ax,[cs:0x1e0]
00000537  2EFF36DA01        push word [cs:0x1da]
0000053C  2EFF1EF601        call word far [cs:0x1f6]
00000541  9C                pushfw
00000542  2E8F06DE01        pop word [cs:0x1de]
00000547  2EA3E401          mov [cs:0x1e4],ax
0000054B  C3                ret
0000054C  06                push es
0000054D  C43EEA01          les di,[0x1ea]
00000551  26803DFF          cmp byte [es:di],0xff
00000555  7503              jnz 0x55a
00000557  83C707            add di,byte +0x7
0000055A  AA                stosb
0000055B  07                pop es
0000055C  C3                ret
0000055D  50                push ax
0000055E  B000              mov al,0x0
00000560  8606FE01          xchg al,[0x1fe]
00000564  FEC0              inc al
00000566  58                pop ax
00000567  C3                ret
00000568  FC                cld
00000569  56                push si
0000056A  BF0501            mov di,0x105
0000056D  8B360301          mov si,[0x103]
00000571  0BF6              or si,si
00000573  7433              jz 0x5a8
00000575  33C9              xor cx,cx
00000577  AC                lodsb
00000578  3C3B              cmp al,0x3b
0000057A  7410              jz 0x58c
0000057C  0AC0              or al,al
0000057E  740A              jz 0x58a
00000580  81FF4701          cmp di,0x147
00000584  77F1              ja 0x577
00000586  AA                stosb
00000587  41                inc cx
00000588  EBED              jmp short 0x577
0000058A  33F6              xor si,si
0000058C  4F                dec di
0000058D  81FF0501          cmp di,0x105
00000591  720B              jc 0x59e
00000593  8A05              mov al,[di]
00000595  3C2F              cmp al,0x2f
00000597  74F3              jz 0x58c
00000599  3C5C              cmp al,0x5c
0000059B  74EF              jz 0x58c
0000059D  F8                clc
0000059E  47                inc di
0000059F  C60500            mov byte [di],0x0
000005A2  89360301          mov [0x103],si
000005A6  E3C2              jcxz 0x56a
000005A8  5E                pop si
000005A9  C3                ret
000005AA  FC                cld
000005AB  1E                push ds
000005AC  C536EA01          lds si,[0x1ea]
000005B0  8BDE              mov bx,si
000005B2  AC                lodsb
000005B3  0AC0              or al,al
000005B5  7410              jz 0x5c7
000005B7  3C5C              cmp al,0x5c
000005B9  7408              jz 0x5c3
000005BB  3C2F              cmp al,0x2f
000005BD  7404              jz 0x5c3
000005BF  3C3A              cmp al,0x3a
000005C1  75EF              jnz 0x5b2
000005C3  8BDE              mov bx,si
000005C5  EBEB              jmp short 0x5b2
000005C7  8BF3              mov si,bx
000005C9  8CDB              mov bx,ds
000005CB  1F                pop ds
000005CC  C3                ret
000005CD  50                push ax
000005CE  53                push bx
000005CF  51                push cx
000005D0  57                push di
000005D1  06                push es
000005D2  B459              mov ah,0x59
000005D4  33DB              xor bx,bx
000005D6  9C                pushfw
000005D7  FF1EF601          call word far [0x1f6]
000005DB  A32203            mov [0x322],ax
000005DE  891E2403          mov [0x324],bx
000005E2  890E2603          mov [0x326],cx
000005E6  89162803          mov [0x328],dx
000005EA  89362A03          mov [0x32a],si
000005EE  893E2C03          mov [0x32c],di
000005F2  8C1E2E03          mov [0x32e],ds
000005F6  8C063003          mov [0x330],es
000005FA  07                pop es
000005FB  5F                pop di
000005FC  59                pop cx
000005FD  5B                pop bx
000005FE  58                pop ax
000005FF  C3                ret
00000600  B80A5D            mov ax,0x5d0a
00000603  BA2203            mov dx,0x322
00000606  9C                pushfw
00000607  FF1EF601          call word far [0x1f6]
0000060B  C3                ret
0000060C  06                push es
0000060D  B82435            mov ax,0x3524
00000610  9C                pushfw
00000611  FF1EF601          call word far [0x1f6]
00000615  891EF201          mov [0x1f2],bx
00000619  8C06F401          mov [0x1f4],es
0000061D  07                pop es
0000061E  B82425            mov ax,0x2524
00000621  BA4A03            mov dx,0x34a
00000624  9C                pushfw
00000625  FF1EF601          call word far [0x1f6]
00000629  C3                ret
0000062A  1E                push ds
0000062B  C516F201          lds dx,[0x1f2]
0000062F  B82425            mov ax,0x2524
00000632  9C                pushfw
00000633  2EFF1EF601        call word far [cs:0x1f6]
00000638  1F                pop ds
00000639  C3                ret
0000063A  B80033            mov ax,0x3300
0000063D  9C                pushfw
0000063E  2EFF1EF601        call word far [cs:0x1f6]
00000643  2E88160002        mov [cs:0x200],dl
00000648  B80133            mov ax,0x3301
0000064B  B200              mov dl,0x0
0000064D  9C                pushfw
0000064E  2EFF1EF601        call word far [cs:0x1f6]
00000653  C3                ret
00000654  B80133            mov ax,0x3301
00000657  2E8A160002        mov dl,[cs:0x200]
0000065C  9C                pushfw
0000065D  2EFF1EF601        call word far [cs:0x1f6]
00000662  C3                ret
00000663  FC                cld
00000664  B430              mov ah,0x30
00000666  CD21              int 0x21
00000668  86E0              xchg ah,al
0000066A  3D0A03            cmp ax,0x30a
0000066D  7309              jnc 0x678
0000066F  BA7007            mov dx,0x770
00000672  B409              mov ah,0x9
00000674  CD21              int 0x21
00000676  CD20              int 0x20
00000678  3D1403            cmp ax,0x314
0000067B  77F2              ja 0x66f
0000067D  A12C00            mov ax,[0x2c]
00000680  0BC0              or ax,ax
00000682  7407              jz 0x68b
00000684  06                push es
00000685  8EC0              mov es,ax
00000687  B449              mov ah,0x49
00000689  CD21              int 0x21
0000068B  B82135            mov ax,0x3521
0000068E  CD21              int 0x21
00000690  891EF601          mov [0x1f6],bx
00000694  8C06F801          mov [0x1f8],es
00000698  B82F35            mov ax,0x352f
0000069B  CD21              int 0x21
0000069D  891EEE01          mov [0x1ee],bx
000006A1  8C06F001          mov [0x1f0],es
000006A5  07                pop es
000006A6  B800B7            mov ax,0xb700
000006A9  CD2F              int 0x2f
000006AB  3CFF              cmp al,0xff
000006AD  9C                pushfw
000006AE  7507              jnz 0x6b7
000006B0  B801B7            mov ax,0xb701
000006B3  CD2F              int 0x2f
000006B5  EB0C              jmp short 0x6c3
000006B7  B80006            mov ax,0x600
000006BA  CD2F              int 0x2f
000006BC  0AC0              or al,al
000006BE  7536              jnz 0x6f6
000006C0  BFA302            mov di,0x2a3
000006C3  57                push di
000006C4  FA                cli
000006C5  E83600            call word 0x6fe
000006C8  FB                sti
000006C9  5F                pop di
000006CA  7503              jnz 0x6cf
000006CC  E86F00            call word 0x73e
000006CF  9D                popfw
000006D0  7506              jnz 0x6d8
000006D2  B44C              mov ah,0x4c
000006D4  CD21              int 0x21
000006D6  EBFA              jmp short 0x6d2
000006D8  E85FFF            call word 0x63a
000006DB  B82F25            mov ax,0x252f
000006DE  BA3203            mov dx,0x332
000006E1  CD21              int 0x21
000006E3  B82125            mov ax,0x2521
000006E6  BA5D03            mov dx,0x35d
000006E9  CD21              int 0x21
000006EB  E866FF            call word 0x654
000006EE  B80031            mov ax,0x3100
000006F1  BA6F00            mov dx,0x6f
000006F4  CD21              int 0x21
000006F6  BEA207            mov si,0x7a2
000006F9  E85F00            call word 0x75b
000006FC  EBD4              jmp short 0x6d2
000006FE  33C9              xor cx,cx
00000700  BE8100            mov si,0x81
00000703  AC                lodsb
00000704  0BC9              or cx,cx
00000706  7507              jnz 0x70f
00000708  E81F00            call word 0x72a
0000070B  7215              jc 0x722
0000070D  74F4              jz 0x703
0000070F  E81800            call word 0x72a
00000712  760E              jna 0x722
00000714  3C61              cmp al,0x61
00000716  7206              jc 0x71e
00000718  3C7A              cmp al,0x7a
0000071A  7702              ja 0x71e
0000071C  2C20              sub al,0x20
0000071E  AA                stosb
0000071F  41                inc cx
00000720  EBE1              jmp short 0x703
00000722  0BC9              or cx,cx
00000724  7403              jz 0x729
00000726  B000              mov al,0x0
00000728  AA                stosb
00000729  C3                ret
0000072A  3C20              cmp al,0x20
0000072C  740D              jz 0x73b
0000072E  3C09              cmp al,0x9
00000730  7409              jz 0x73b
00000732  3C3D              cmp al,0x3d
00000734  7405              jz 0x73b
00000736  3C0D              cmp al,0xd
00000738  7402              jz 0x73c
0000073A  F8                clc
0000073B  C3                ret
0000073C  F9                stc
0000073D  C3                ret
0000073E  26803D3B          cmp byte [es:di],0x3b
00000742  740F              jz 0x753
00000744  1E                push ds
00000745  06                push es
00000746  1F                pop ds
00000747  8D75F9            lea si,[di-0x7]
0000074A  E80900            call word 0x756
0000074D  1F                pop ds
0000074E  BEBA07            mov si,0x7ba
00000751  EB03              jmp short 0x756
00000753  BE8807            mov si,0x788
00000756  BB0100            mov bx,0x1
00000759  EB03              jmp short 0x75e
0000075B  BB0200            mov bx,0x2
0000075E  B90100            mov cx,0x1
00000761  8BD6              mov dx,si
00000763  AC                lodsb
00000764  0AC0              or al,al
00000766  7407              jz 0x76f
00000768  B440              mov ah,0x40
0000076A  CD21              int 0x21
0000076C  42                inc dx
0000076D  EBF4              jmp short 0x763
0000076F  C3                ret
00000770  49                dec cx
00000771  6E                outsb
00000772  636F72            arpl [bx+0x72],bp
00000775  7265              jc 0x7dc
00000777  637420            arpl [si+0x20],si
0000077A  44                inc sp
0000077B  4F                dec di
0000077C  53                push bx
0000077D  205665            and [bp+0x65],dl
00000780  7273              jc 0x7f5
00000782  696F6E0D0A        imul bp,[bx+0x6e],word 0xa0d
00000787  244E              and al,0x4e
00000789  6F                outsw
0000078A  206170            and [bx+di+0x70],ah
0000078D  7065              jo 0x7f4
0000078F  6E                outsb
00000790  646564206469      and [fs:si+0x69],ah
00000796  7265              jc 0x7fd
00000798  63746F            arpl [si+0x6f],si
0000079B  7269              jc 0x806
0000079D  65730D            gs jnc 0x7ad
000007A0  0A00              or al,[bx+si]
000007A2  41                inc cx
000007A3  50                push ax
000007A4  50                push ax
000007A5  45                inc bp
000007A6  4E                dec si
000007A7  44                inc sp
000007A8  202F              and [bx],ch
000007AA  204153            and [bx+di+0x53],al
000007AD  53                push bx
000007AE  49                dec cx
000007AF  47                inc di
000007B0  4E                dec si
000007B1  20436F            and [bp+di+0x6f],al
000007B4  6E                outsb
000007B5  666C              o32 insb
000007B7  6963740D0A        imul sp,[bp+di+0x74],word 0xa0d
000007BC  00                db 0x00
